target datalayout = "e-m:e-p270:32:32-p271:32:32-p272:64:64-i64:64-i128:128-f80:128-n8:16:32:64-S128"
target triple = "x86_64-pc-linux-gnu"

%"class.icu_77::MaybeStackArray" = type <{ ptr, i32, i8, [40 x i8], [3 x i8] }>
%"class.icu_77::CharString" = type { %"class.icu_77::MaybeStackArray", i32, [4 x i8] }
%"class.icu_77::MeasureUnitImpl" = type { i32, %"class.icu_77::MaybeStackVector", %"class.icu_77::CharString", i64 }
%"class.icu_77::MaybeStackVector" = type { %"class.icu_77::MemoryPool" }
%"class.icu_77::MemoryPool" = type { i32, %"class.icu_77::MaybeStackArray.0" }
%"class.icu_77::MaybeStackArray.0" = type { ptr, i32, i8, [8 x ptr] }
%"class.icu_77::UObject" = type { ptr }
%"class.icu_77::MeasureUnit" = type <{ %"class.icu_77::UObject", ptr, i16, i8, [5 x i8] }>

; Function Attrs: mustprogress uwtable
define void @_ZNO6icu_7715MeasureUnitImpl5buildER10UErrorCode(ptr dead_on_unwind noalias writable sret(%"class.icu_77::MeasureUnit") align 8 %0, ptr noundef nonnull align 8 dereferenceable(168) %1, ptr noundef nonnull align 4 dereferenceable(4) %2) #1 align 2 {
  %4 = alloca ptr, align 8
  %5 = alloca ptr, align 8
  %6 = alloca ptr, align 8
  store ptr %0, ptr %4, align 8
  store ptr %1, ptr %5, align 8, !tbaa !25
  store ptr %2, ptr %6, align 8, !tbaa !22
  %7 = load ptr, ptr %5, align 8
  %8 = load ptr, ptr %6, align 8, !tbaa !22
  call void @_ZN6icu_7715MeasureUnitImpl9serializeER10UErrorCode(ptr noundef nonnull align 8 dereferenceable(168) %7, ptr noundef nonnull align 4 dereferenceable(4) %8)
  call void @_ZN6icu_7711MeasureUnitC1EONS_15MeasureUnitImplE(ptr noundef nonnull align 8 dereferenceable(19) %0, ptr noundef nonnull align 8 dereferenceable(168) %7)
  ret void
}

; Function Attrs: mustprogress nounwind uwtable
define linkonce_odr noundef i32 @_ZNK6icu_7716MaybeStackVectorINS_14SingleUnitImplELi8EE6lengthEv(ptr noundef nonnull align 8 dereferenceable(88) %0) #0 comdat align 2 {
  %2 = alloca ptr, align 8
  store ptr %0, ptr %2, align 8, !tbaa !91
  %3 = load ptr, ptr %2, align 8
  %4 = getelementptr inbounds nuw %"class.icu_77::MemoryPool", ptr %3, i32 0, i32 0
  %5 = load i32, ptr %4, align 8, !tbaa !93
  ret i32 %5
}

; Function Attrs: inlinehint mustprogress nounwind uwtable
define internal noundef signext i8 @_ZL9U_FAILURE10UErrorCode(i32 noundef %0) #2 {
  %2 = alloca i32, align 4
  store i32 %0, ptr %2, align 4, !tbaa !15
  %3 = load i32, ptr %2, align 4, !tbaa !15
  %4 = icmp sgt i32 %3, 0
  %5 = zext i1 %4 to i8
  ret i8 %5
}

; Function Attrs: mustprogress uwtable
define void @_ZNK6icu_7711MeasureUnit23withConstantDenominatorEmR10UErrorCode(ptr dead_on_unwind noalias writable sret(%"class.icu_77::MeasureUnit") align 8 %0, ptr noundef nonnull align 8 dereferenceable(19) %1, i64 noundef %2, ptr noundef nonnull align 4 dereferenceable(4) %3) #1 align 2 personality ptr @__gxx_personality_v0 {
  %5 = alloca ptr, align 8
  %6 = alloca ptr, align 8
  %7 = alloca i64, align 8
  %8 = alloca ptr, align 8
  %9 = alloca i32, align 4
  %10 = alloca i32, align 4
  %11 = alloca %"class.icu_77::MeasureUnitImpl", align 8
  %12 = alloca ptr, align 8
  %13 = alloca i32, align 4
  store ptr %0, ptr %5, align 8
  store ptr %1, ptr %6, align 8, !tbaa !84
  store i64 %2, ptr %7, align 8, !tbaa !18
  store ptr %3, ptr %8, align 8, !tbaa !22
  %14 = load ptr, ptr %6, align 8
  %15 = load i64, ptr %7, align 8, !tbaa !18
  %16 = icmp ugt i64 %15, 9223372036854775807
  br i1 %16, label %17, label %19

17:                                               ; preds = %4
  %18 = load ptr, ptr %8, align 8, !tbaa !22
  store i32 1, ptr %18, align 4, !tbaa !15
  call void @_ZN6icu_7711MeasureUnitC1Ev(ptr noundef nonnull align 8 dereferenceable(19) %0)
  br label %66

19:                                               ; preds = %4
  call void @llvm.lifetime.start.p0(i64 4, ptr %9) #14
  %20 = load ptr, ptr %8, align 8, !tbaa !22
  %21 = call noundef i32 @_ZNK6icu_7711MeasureUnit13getComplexityER10UErrorCode(ptr noundef nonnull align 8 dereferenceable(19) %14, ptr noundef nonnull align 4 dereferenceable(4) %20)
  store i32 %21, ptr %9, align 4, !tbaa !101
  %22 = load ptr, ptr %8, align 8, !tbaa !22
  %23 = load i32, ptr %22, align 4, !tbaa !15
  %24 = call noundef signext i8 @_ZL9U_FAILURE10UErrorCode(i32 noundef %23)
  %25 = icmp ne i8 %24, 0
  br i1 %25, label %26, label %27

26:                                               ; preds = %19
  call void @_ZN6icu_7711MeasureUnitC1Ev(ptr noundef nonnull align 8 dereferenceable(19) %0)
  store i32 1, ptr %10, align 4
  br label %65

27:                                               ; preds = %19
  %28 = load i32, ptr %9, align 4, !tbaa !101
  %29 = icmp ne i32 %28, 0
  br i1 %29, label %30, label %35

30:                                               ; preds = %27
  %31 = load i32, ptr %9, align 4, !tbaa !101
  %32 = icmp ne i32 %31, 1
  br i1 %32, label %33, label %35

33:                                               ; preds = %30
  %34 = load ptr, ptr %8, align 8, !tbaa !22
  store i32 1, ptr %34, align 4, !tbaa !15
  call void @_ZN6icu_7711MeasureUnitC1Ev(ptr noundef nonnull align 8 dereferenceable(19) %0)
  store i32 1, ptr %10, align 4
  br label %65

35:                                               ; preds = %30, %27
  call void @llvm.lifetime.start.p0(i64 168, ptr %11) #14
  %36 = load ptr, ptr %8, align 8, !tbaa !22
  call void @_ZN6icu_7715MeasureUnitImpl23forMeasureUnitMaybeCopyERKNS_11MeasureUnitER10UErrorCode(ptr dead_on_unwind writable sret(%"class.icu_77::MeasureUnitImpl") align 8 %11, ptr noundef nonnull align 8 dereferenceable(19) %14, ptr noundef nonnull align 4 dereferenceable(4) %36)
  %37 = load ptr, ptr %8, align 8, !tbaa !22
  %38 = load i32, ptr %37, align 4, !tbaa !15
  %39 = invoke noundef signext i8 @_ZL9U_FAILURE10UErrorCode(i32 noundef %38)
          to label %40 unwind label %44

40:                                               ; preds = %35
  %41 = icmp ne i8 %39, 0
  br i1 %41, label %42, label %48

42:                                               ; preds = %40
  invoke void @_ZN6icu_7711MeasureUnitC1Ev(ptr noundef nonnull align 8 dereferenceable(19) %0)
          to label %43 unwind label %44

43:                                               ; preds = %42
  store i32 1, ptr %10, align 4
  br label %64

44:                                               ; preds = %58, %48, %42, %35
  %45 = landingpad { ptr, i32 }
          cleanup
  %46 = extractvalue { ptr, i32 } %45, 0
  store ptr %46, ptr %12, align 8
  %47 = extractvalue { ptr, i32 } %45, 1
  store i32 %47, ptr %13, align 4
  call void @_ZN6icu_7715MeasureUnitImplD2Ev(ptr noundef nonnull align 8 dereferenceable(168) %11) #14
  call void @llvm.lifetime.end.p0(i64 168, ptr %11) #14
  call void @llvm.lifetime.end.p0(i64 4, ptr %9) #14
  br label %67

48:                                               ; preds = %40
  %49 = load i64, ptr %7, align 8, !tbaa !18
  %50 = getelementptr inbounds nuw %"class.icu_77::MeasureUnitImpl", ptr %11, i32 0, i32 3
  store i64 %49, ptr %50, align 8, !tbaa !60
  %51 = getelementptr inbounds nuw %"class.icu_77::MeasureUnitImpl", ptr %11, i32 0, i32 1
  %52 = invoke noundef i32 @_ZNK6icu_7716MaybeStackVectorINS_14SingleUnitImplELi8EE6lengthEv(ptr noundef nonnull align 8 dereferenceable(88) %51)
          to label %53 unwind label %44

53:                                               ; preds = %48
  %54 = icmp slt i32 %52, 2
  br i1 %54, label %55, label %58

55:                                               ; preds = %53
  %56 = load i64, ptr %7, align 8, !tbaa !18
  %57 = icmp eq i64 %56, 0
  br label %58

58:                                               ; preds = %55, %53
  %59 = phi i1 [ false, %53 ], [ %57, %55 ]
  %60 = select i1 %59, i32 0, i32 1
  %61 = getelementptr inbounds nuw %"class.icu_77::MeasureUnitImpl", ptr %11, i32 0, i32 0
  store i32 %60, ptr %61, align 8, !tbaa !67
  %62 = load ptr, ptr %8, align 8, !tbaa !22
  invoke void @_ZNO6icu_7715MeasureUnitImpl5buildER10UErrorCode(ptr dead_on_unwind writable sret(%"class.icu_77::MeasureUnit") align 8 %0, ptr noundef nonnull align 8 dereferenceable(168) %11, ptr noundef nonnull align 4 dereferenceable(4) %62)
          to label %63 unwind label %44

63:                                               ; preds = %58
  store i32 1, ptr %10, align 4
  br label %64

64:                                               ; preds = %63, %43
  call void @_ZN6icu_7715MeasureUnitImplD2Ev(ptr noundef nonnull align 8 dereferenceable(168) %11) #14
  call void @llvm.lifetime.end.p0(i64 168, ptr %11) #14
  br label %65

65:                                               ; preds = %64, %33, %26
  call void @llvm.lifetime.end.p0(i64 4, ptr %9) #14
  br label %66

66:                                               ; preds = %65, %17
  ret void

67:                                               ; preds = %44
  %68 = load ptr, ptr %12, align 8
  %69 = load i32, ptr %13, align 4
  %70 = insertvalue { ptr, i32 } poison, ptr %68, 0
  %71 = insertvalue { ptr, i32 } %70, i32 %69, 1
  resume { ptr, i32 } %71
}