; Function Attrs: mustprogress uwtable
define void @_ZNK6icu_7711MeasureUnit23withConstantDenominatorEmR10UErrorCode(ptr dead_on_unwind noalias writable sret(%"class.icu_77::MeasureUnit") align 8 %0, ptr noundef nonnull align 8 dereferenceable(19) %1, i64 noundef %2, ptr noundef nonnull align 4 dereferenceable(4) %3) local_unnamed_addr #1 align 2 personality ptr @__gxx_personality_v0 {
  %5 = alloca %"class.icu_77::MeasureUnitImpl", align 8
  %6 = icmp slt i64 %2, 0
  br i1 %6, label %7, label %8

7:                                                ; preds = %4
  store i32 1, ptr %3, align 4, !tbaa !13
  tail call void @_ZN6icu_7711MeasureUnitC1Ev(ptr noundef nonnull align 8 dereferenceable(19) %0)
  br label %52

8:                                                ; preds = %4
  %9 = tail call noundef i32 @_ZNK6icu_7711MeasureUnit13getComplexityER10UErrorCode(ptr noundef nonnull align 8 dereferenceable(19) %1, ptr noundef nonnull align 4 dereferenceable(4) %3)
  %10 = load i32, ptr %3, align 4, !tbaa !13
  %11 = icmp slt i32 %10, 1
  br i1 %11, label %13, label %12

12:                                               ; preds = %8
  tail call void @_ZN6icu_7711MeasureUnitC1Ev(ptr noundef nonnull align 8 dereferenceable(19) %0)
  br label %52

13:                                               ; preds = %8
  %or.cond = icmp ugt i32 %9, 1
  br i1 %or.cond, label %14, label %15

14:                                               ; preds = %13
  store i32 1, ptr %3, align 4, !tbaa !13
  tail call void @_ZN6icu_7711MeasureUnitC1Ev(ptr noundef nonnull align 8 dereferenceable(19) %0)
  br label %52

15:                                               ; preds = %13
  call void @llvm.lifetime.start.p0(i64 168, ptr nonnull %5) #18
  call void @_ZN6icu_7715MeasureUnitImpl23forMeasureUnitMaybeCopyERKNS_11MeasureUnitER10UErrorCode(ptr dead_on_unwind nonnull writable sret(%"class.icu_77::MeasureUnitImpl") align 8 %5, ptr noundef nonnull align 8 dereferenceable(19) %1, ptr noundef nonnull align 4 dereferenceable(4) %3)
  %16 = load i32, ptr %3, align 4, !tbaa !13
  %17 = icmp slt i32 %16, 1
  br i1 %17, label %21, label %18

18:                                               ; preds = %15
  invoke void @_ZN6icu_7711MeasureUnitC1Ev(ptr noundef nonnull align 8 dereferenceable(19) %0)
          to label %_ZNO6icu_7715MeasureUnitImpl5buildER10UErrorCode.exit unwind label %19

19:                                               ; preds = %.noexc, %21, %18
  %20 = landingpad { ptr, i32 }
          cleanup
  call void @_ZN6icu_7715MeasureUnitImplD2Ev(ptr noundef nonnull align 8 dereferenceable(168) %5) #18
  call void @llvm.lifetime.end.p0(i64 168, ptr nonnull %5) #18
  resume { ptr, i32 } %20

21:                                               ; preds = %15
  %22 = getelementptr inbounds nuw i8, ptr %5, i64 160
  store i64 %2, ptr %22, align 8, !tbaa !81
  %23 = getelementptr inbounds nuw i8, ptr %5, i64 8
  %24 = load i32, ptr %23, align 8, !tbaa !28
  %25 = icmp sgt i32 %24, 1
  %26 = icmp ne i64 %2, 0
  %.not18 = or i1 %26, %25
  %27 = zext i1 %.not18 to i32
  store i32 %27, ptr %5, align 8, !tbaa !76
  invoke void @_ZN6icu_7715MeasureUnitImpl9serializeER10UErrorCode(ptr noundef nonnull align 8 dereferenceable(168) %5, ptr noundef nonnull align 4 dereferenceable(4) %3)
          to label %.noexc unwind label %19

.noexc:                                           ; preds = %21
  invoke void @_ZN6icu_7711MeasureUnitC1EONS_15MeasureUnitImplE(ptr noundef nonnull align 8 dereferenceable(19) %0, ptr noundef nonnull align 8 dereferenceable(168) %5)
          to label %_ZNO6icu_7715MeasureUnitImpl5buildER10UErrorCode.exit unwind label %19

_ZNO6icu_7715MeasureUnitImpl5buildER10UErrorCode.exit: ; preds = %.noexc, %18
  %28 = getelementptr inbounds nuw i8, ptr %5, i64 96
  call void @_ZN6icu_7715MaybeStackArrayIcLi40EED1Ev(ptr noundef nonnull align 8 dereferenceable(60) %28) #18
  %29 = getelementptr inbounds nuw i8, ptr %5, i64 8
  %30 = load i32, ptr %29, align 8, !tbaa !28
  %31 = icmp sgt i32 %30, 0
  br i1 %31, label %.lr.ph.i.i, label %._crit_edge.i.i

.lr.ph.i.i:                                       ; preds = %_ZNO6icu_7715MeasureUnitImpl5buildER10UErrorCode.exit
  %32 = getelementptr inbounds nuw i8, ptr %5, i64 16
  br label %41

._crit_edge.i.i:                                  ; preds = %48, %_ZNO6icu_7715MeasureUnitImpl5buildER10UErrorCode.exit
  %33 = getelementptr inbounds nuw i8, ptr %5, i64 28
  %34 = load i8, ptr %33, align 4, !tbaa !45
  %.not.i.i.i.i = icmp eq i8 %34, 0
  br i1 %.not.i.i.i.i, label %_ZN6icu_7715MeasureUnitImplD2Ev.exit, label %35

35:                                               ; preds = %._crit_edge.i.i
  %36 = getelementptr inbounds nuw i8, ptr %5, i64 16
  %37 = load ptr, ptr %36, align 8, !tbaa !33
  invoke void @uprv_free_77(ptr noundef %37)
          to label %_ZN6icu_7715MeasureUnitImplD2Ev.exit unwind label %38

38:                                               ; preds = %35
  %39 = landingpad { ptr, i32 }
          catch ptr null
  %40 = extractvalue { ptr, i32 } %39, 0
  call void @__clang_call_terminate(ptr %40) #20
  unreachable

41:                                               ; preds = %48, %.lr.ph.i.i
  %42 = phi i32 [ %30, %.lr.ph.i.i ], [ %49, %48 ]
  %indvars.iv.i.i = phi i64 [ 0, %.lr.ph.i.i ], [ %indvars.iv.next.i.i, %48 ]
  %43 = load ptr, ptr %32, align 8, !tbaa !33
  %44 = getelementptr inbounds nuw ptr, ptr %43, i64 %indvars.iv.i.i
  %45 = load ptr, ptr %44, align 8, !tbaa !34
  %46 = icmp eq ptr %45, null
  br i1 %46, label %48, label %47

47:                                               ; preds = %41
  call void @_ZN6icu_777UMemorydlEPv(ptr noundef nonnull %45) #18
  %.pre.i.i = load i32, ptr %29, align 8, !tbaa !28
  br label %48

48:                                               ; preds = %47, %41
  %49 = phi i32 [ %42, %41 ], [ %.pre.i.i, %47 ]
  %indvars.iv.next.i.i = add nuw nsw i64 %indvars.iv.i.i, 1
  %50 = sext i32 %49 to i64
  %51 = icmp slt i64 %indvars.iv.next.i.i, %50
  br i1 %51, label %41, label %._crit_edge.i.i, !llvm.loop !46

_ZN6icu_7715MeasureUnitImplD2Ev.exit:             ; preds = %._crit_edge.i.i, %35
  call void @llvm.lifetime.end.p0(i64 168, ptr nonnull %5) #18
  br label %52

52:                                               ; preds = %12, %14, %_ZN6icu_7715MeasureUnitImplD2Ev.exit, %7
  ret void
}